; Function Attrs: nounwind uwtable
define dso_local i32 @Curl_xfer_recv(ptr noundef %0, ptr noundef %1, i64 noundef %2, ptr noundef %3) local_unnamed_addr #0 {
  %5 = getelementptr inbounds nuw i8, ptr %0, i64 24
  %6 = load ptr, ptr %5, align 8, !tbaa !87
  %7 = getelementptr inbounds nuw i8, ptr %6, i64 960
  %8 = load i32, ptr %7, align 8, !tbaa !106
  %.not = icmp eq i32 %8, -1
  br i1 %.not, label %14, label %9

9:                                                ; preds = %4
  %10 = getelementptr inbounds nuw i8, ptr %6, i64 572
  %11 = load i32, ptr %10, align 4, !tbaa !97
  %12 = icmp eq i32 %8, %11
  %13 = zext i1 %12 to i32
  br label %14

14:                                               ; preds = %9, %4
  %15 = phi i32 [ 0, %4 ], [ %13, %9 ]
  %16 = getelementptr inbounds nuw i8, ptr %0, i64 1732
  %17 = load i32, ptr %16, align 4, !tbaa !107
  %18 = zext i32 %17 to i64
  %spec.select = tail call i64 @llvm.umin.i64(i64 %2, i64 %18)
  %19 = tail call i32 @Curl_conn_recv(ptr noundef nonnull %0, i32 noundef %15, ptr noundef %1, i64 noundef %spec.select, ptr noundef %3) #6
  ret i32 %19
}